Certificate:
    Data:
        Version: 3 (0x2)
        Serial Number: 4096 (0x1000)
    Signature Algorithm: sha1WithRSAEncryption
        Issuer: C=FR, ST=France, L=Paris, O=Wallix, CN=rdpproxy.wab/emailAddress=ca@rdpproxy.wab
        Validity
            Not Before: Apr  3 00:26:56 2013 GMT
            Not After : Apr  1 00:26:56 2023 GMT
        Subject: C=FR, ST=France, O=Wallix, CN=rdpproxy.com
        Subject Public Key Info:
            Public Key Algorithm: rsaEncryption
                Public-Key: (2048 bit)
                Modulus:
                    00:c6:a2:5a:d5:06:8b:8a:a0:3c:1e:81:2a:b0:fb:
                    a8:d4:6f:2f:c3:3a:13:d3:1e:24:88:8d:22:db:a4:
                    ac:02:ef:12:7c:74:af:c7:1a:1a:a5:19:14:7a:42:
                    80:9c:cc:8a:53:f0:85:28:0a:2a:92:30:52:6f:8a:
                    c6:84:65:87:98:dd:fa:f7:bb:7c:41:f9:eb:66:8e:
                    62:37:e9:36:ee:14:f6:6d:d3:94:de:c4:db:ee:4a:
                    27:fc:9a:26:be:04:0a:b3:4e:60:c5:4d:b2:93:d2:
                    2f:e1:8f:55:76:7c:25:34:68:a0:1b:3a:8d:bd:32:
                    4d:a0:e4:35:c9:7e:f0:6e:7c:d5:5e:1f:2f:85:11:
                    c1:d0:c7:f7:58:5d:29:8e:0b:66:98:ac:ab:bd:6a:
                    ef:35:41:1d:91:7b:b6:43:e4:9c:26:0c:74:7c:6c:
                    c5:e8:c2:15:b7:5c:30:78:2b:46:5b:8f:0f:51:e5:
                    ad:7d:c6:69:37:38:4d:a1:aa:9b:86:d2:4a:d4:9d:
                    e5:dd:bd:59:7f:68:c1:d4:1a:6a:45:48:1b:fd:98:
                    87:7c:bf:70:2d:bf:59:9d:cf:8a:97:92:aa:21:33:
                    59:34:31:52:98:32:fc:96:c3:5e:4d:e8:fa:b7:98:
                    15:8a:15:e3:f7:01:1a:cc:b1:6e:79:14:56:9a:1c:
                    fc:37
                Exponent: 65537 (0x10001)
        X509v3 extensions:
            X509v3 Basic Constraints: 
                CA:FALSE
            Netscape Comment: 
                OpenSSL Generated Certificate
            X509v3 Subject Key Identifier: 
                9B:E3:EE:21:89:09:29:0A:0F:AE:CD:74:08:AE:59:E4:5F:61:DD:86
            X509v3 Authority Key Identifier: 
                keyid:79:A6:4E:94:EC:89:59:C9:E4:77:06:8F:39:3E:23:7E:07:92:25:CE

    Signature Algorithm: sha1WithRSAEncryption
         0e:35:2f:b4:31:cb:9d:87:78:24:37:55:8e:c0:99:59:cd:38:
         15:12:9e:e2:f0:55:5c:30:8b:09:c8:12:e3:79:91:bb:af:37:
         ca:10:94:96:8a:b3:02:2e:21:17:7f:23:ba:8e:e3:d8:c9:60:
         87:e0:e4:1e:62:f0:dd:d6:76:c0:81:d8:08:a6:3e:3e:5d:f6:
         f9:e9:cd:61:cb:90:92:3c:54:7b:12:b2:3d:c1:c1:c1:76:5a:
         bf:84:cd:a8:63:53:5c:9d:24:d6:67:12:f4:c6:8f:c5:07:09:
         21:60:23:46:c1:4d:af:49:5a:b8:24:01:8f:93:e6:0b:92:f0:
         8f:ab:00:40:ff:07:16:98:b5:24:1e:21:4d:fa:52:7b:8f:56:
         7d:dd:6d:20:9b:f8:e1:6e:65:f4:83:26:e1:5b:48:d9:eb:dd:
         21:51:65:c9:2b:dc:2f:98:60:4d:8e:36:ee:71:fe:78:76:f3:
         d3:d4:30:38:b6:24:f8:c2:94:10:50:b8:2b:a9:55:50:d0:d2:
         ac:65:46:e9:70:45:15:d8:86:9c:6c:cf:4a:c7:2b:c8:2a:b2:
         f5:46:99:1d:35:8f:b3:cb:c0:1c:31:28:52:81:c4:e9:6f:9b:
         fd:57:a1:69:4d:64:e6:bc:ec:df:89:38:c3:96:4d:7a:55:0e:
         74:ad:c8:42
-----BEGIN CERTIFICATE-----
MIIDszCCApugAwIBAgICEAAwDQYJKoZIhvcNAQEFBQAwdjELMAkGA1UEBhMCRlIx
DzANBgNVBAgMBkZyYW5jZTEOMAwGA1UEBwwFUGFyaXMxDzANBgNVBAoMBldhbGxp
eDEVMBMGA1UEAwwMcmRwcHJveHkud2FiMR4wHAYJKoZIhvcNAQkBFg9jYUByZHBw
cm94eS53YWIwHhcNMTMwNDAzMDAyNjU2WhcNMjMwNDAxMDAyNjU2WjBGMQswCQYD
VQQGEwJGUjEPMA0GA1UECAwGRnJhbmNlMQ8wDQYDVQQKDAZXYWxsaXgxFTATBgNV
BAMMDHJkcHByb3h5LmNvbTCCASIwDQYJKoZIhvcNAQEBBQADggEPADCCAQoCggEB
AMaiWtUGi4qgPB6BKrD7qNRvL8M6E9MeJIiNItukrALvEnx0r8caGqUZFHpCgJzM
ilPwhSgKKpIwUm+KxoRlh5jd+ve7fEH562aOYjfpNu4U9m3TlN7E2+5KJ/yaJr4E
CrNOYMVNspPSL+GPVXZ8JTRooBs6jb0yTaDkNcl+8G581V4fL4URwdDH91hdKY4L
Zpisq71q7zVBHZF7tkPknCYMdHxsxejCFbdcMHgrRluPD1HlrX3GaTc4TaGqm4bS
StSd5d29WX9owdQaakVIG/2Yh3y/cC2/WZ3PipeSqiEzWTQxUpgy/JbDXk3o+reY
FYoV4/cBGsyxbnkUVpoc/DcCAwEAAaN7MHkwCQYDVR0TBAIwADAsBglghkgBhvhC
AQ0EHxYdT3BlblNTTCBHZW5lcmF0ZWQgQ2VydGlmaWNhdGUwHQYDVR0OBBYEFJvj
7iGJCSkKD67NdAiuWeRfYd2GMB8GA1UdIwQYMBaAFHmmTpTsiVnJ5HcGjzk+I34H
kiXOMA0GCSqGSIb3DQEBBQUAA4IBAQAONS+0Mcudh3gkN1WOwJlZzTgVEp7i8FVc
MIsJyBLjeZG7rzfKEJSWirMCLiEXfyO6juPYyWCH4OQeYvDd1nbAgdgIpj4+Xfb5
6c1hy5CSPFR7ErI9wcHBdlq/hM2oY1NcnSTWZxL0xo/FBwkhYCNGwU2vSVq4JAGP
k+YLkvCPqwBA/wcWmLUkHiFN+lJ7j1Z93W0gm/jhbmX0gybhW0jZ690hUWXJK9wv
mGBNjjbucf54dvPT1DA4tiT4wpQQULgrqVVQ0NKsZUbpcEUV2IacbM9KxyvIKrL1
RpkdNY+zy8AcMShSgcTpb5v9V6FpTWTmvOzfiTjDlk16VQ50rchC
-----END CERTIFICATE-----
